; Function Attrs: mustprogress norecurse uwtable
define hidden noundef i32 @main(i32 noundef %0, ptr noundef %1) local_unnamed_addr #3 personality ptr @__gxx_personality_v0 {
  %3 = alloca %"class.std::__cxx11::basic_string", align 8
  %4 = alloca %"class.std::allocator", align 1
  %5 = alloca %"class.cv::CommandLineParser", align 8
  %6 = alloca %"class.std::__cxx11::basic_string", align 8
  %7 = alloca %"class.std::allocator", align 1
  %8 = alloca %class.AudioDrawing, align 8
  call void @_ZNSaIcEC1Ev(ptr noundef nonnull align 1 dereferenceable(1) %4) #19
  invoke void @_ZNSt7__cxx1112basic_stringIcSt11char_traitsIcESaIcEEC1EPKcRKS3_(ptr noundef nonnull align 8 dereferenceable(32) %3, ptr noundef nonnull @.str, ptr noundef nonnull align 1 dereferenceable(1) %4)
          to label %9 unwind label %15

9:                                                ; preds = %2
  call void @_ZNSaIcED1Ev(ptr noundef nonnull align 1 dereferenceable(1) %4) #19
  invoke void @_ZN2cv17CommandLineParserC1EiPKPKcRKNSt7__cxx1112basic_stringIcSt11char_traitsIcESaIcEEE(ptr noundef nonnull align 8 dereferenceable(8) %5, i32 noundef %0, ptr noundef %1, ptr noundef nonnull align 8 dereferenceable(32) %3)
          to label %10 unwind label %17

10:                                               ; preds = %9
  call void @_ZNSaIcEC1Ev(ptr noundef nonnull align 1 dereferenceable(1) %7) #19
  invoke void @_ZNSt7__cxx1112basic_stringIcSt11char_traitsIcESaIcEEC1EPKcRKS3_(ptr noundef nonnull align 8 dereferenceable(32) %6, ptr noundef nonnull @.str.1, ptr noundef nonnull align 1 dereferenceable(1) %7)
          to label %11 unwind label %19

11:                                               ; preds = %10
  %12 = invoke noundef zeroext i1 @_ZNK2cv17CommandLineParser3hasERKNSt7__cxx1112basic_stringIcSt11char_traitsIcESaIcEEE(ptr noundef nonnull align 8 dereferenceable(8) %5, ptr noundef nonnull align 8 dereferenceable(32) %6)
          to label %13 unwind label %21

13:                                               ; preds = %11
  call void @_ZNSt7__cxx1112basic_stringIcSt11char_traitsIcESaIcEED1Ev(ptr noundef nonnull align 8 dereferenceable(32) %6) #19
  call void @_ZNSaIcED1Ev(ptr noundef nonnull align 1 dereferenceable(1) %7) #19
  br i1 %12, label %14, label %26

14:                                               ; preds = %13
  invoke void @_ZNK2cv17CommandLineParser12printMessageEv(ptr noundef nonnull align 8 dereferenceable(8) %5)
          to label %32 unwind label %24

15:                                               ; preds = %2
  %16 = landingpad { ptr, i32 }
          cleanup
  call void @_ZNSaIcED1Ev(ptr noundef nonnull align 1 dereferenceable(1) %4) #19
  br label %35

17:                                               ; preds = %9
  %18 = landingpad { ptr, i32 }
          cleanup
  br label %34

19:                                               ; preds = %10
  %20 = landingpad { ptr, i32 }
          cleanup
  br label %23

21:                                               ; preds = %11
  %22 = landingpad { ptr, i32 }
          cleanup
  call void @_ZNSt7__cxx1112basic_stringIcSt11char_traitsIcESaIcEED1Ev(ptr noundef nonnull align 8 dereferenceable(32) %6) #19
  br label %23

23:                                               ; preds = %21, %19
  %.pn = phi { ptr, i32 } [ %22, %21 ], [ %20, %19 ]
  call void @_ZNSaIcED1Ev(ptr noundef nonnull align 1 dereferenceable(1) %7) #19
  br label %33

24:                                               ; preds = %26, %14
  %25 = landingpad { ptr, i32 }
          cleanup
  br label %33

26:                                               ; preds = %13
  invoke void @_ZN12AudioDrawingC2ERKN2cv17CommandLineParserE(ptr noundef nonnull align 8 dereferenceable(216) %8, ptr noundef nonnull align 8 dereferenceable(8) %5)
          to label %27 unwind label %24

27:                                               ; preds = %26
  %28 = getelementptr inbounds i8, ptr %8, i64 136
  call void @_ZNSt7__cxx1112basic_stringIcSt11char_traitsIcESaIcEED1Ev(ptr noundef nonnull align 8 dereferenceable(32) %28) #19
  %29 = getelementptr inbounds i8, ptr %8, i64 96
  call void @_ZNSt7__cxx1112basic_stringIcSt11char_traitsIcESaIcEED1Ev(ptr noundef nonnull align 8 dereferenceable(32) %29) #19
  %30 = getelementptr inbounds i8, ptr %8, i64 64
  call void @_ZNSt7__cxx1112basic_stringIcSt11char_traitsIcESaIcEED1Ev(ptr noundef nonnull align 8 dereferenceable(32) %30) #19
  %31 = getelementptr inbounds i8, ptr %8, i64 32
  call void @_ZNSt7__cxx1112basic_stringIcSt11char_traitsIcESaIcEED1Ev(ptr noundef nonnull align 8 dereferenceable(32) %31) #19
  call void @_ZNSt7__cxx1112basic_stringIcSt11char_traitsIcESaIcEED1Ev(ptr noundef nonnull align 8 dereferenceable(32) %8) #19
  br label %32

32:                                               ; preds = %14, %27
  call void @_ZN2cv17CommandLineParserD1Ev(ptr noundef nonnull align 8 dereferenceable(8) %5) #19
  call void @_ZNSt7__cxx1112basic_stringIcSt11char_traitsIcESaIcEED1Ev(ptr noundef nonnull align 8 dereferenceable(32) %3) #19
  ret i32 0

33:                                               ; preds = %24, %23
  %.pn10 = phi { ptr, i32 } [ %25, %24 ], [ %.pn, %23 ]
  call void @_ZN2cv17CommandLineParserD1Ev(ptr noundef nonnull align 8 dereferenceable(8) %5) #19
  br label %34

34:                                               ; preds = %33, %17
  %.pn10.pn = phi { ptr, i32 } [ %.pn10, %33 ], [ %18, %17 ]
  call void @_ZNSt7__cxx1112basic_stringIcSt11char_traitsIcESaIcEED1Ev(ptr noundef nonnull align 8 dereferenceable(32) %3) #19
  br label %35

35:                                               ; preds = %34, %15
  %.pn10.pn.pn = phi { ptr, i32 } [ %.pn10.pn, %34 ], [ %16, %15 ]
  resume { ptr, i32 } %.pn10.pn.pn
}